target datalayout = "e-m:e-p270:32:32-p271:32:32-p272:64:64-i64:64-i128:128-f80:128-n8:16:32:64-S128"
target triple = "x86_64-pc-linux-gnu"

%struct.AVCodecDescriptor = type { i32, i32, ptr, ptr, i32, ptr, ptr }
%struct.AVCodec = type { ptr, ptr, i32, i32, i32, i8, ptr, ptr, ptr, ptr, ptr, ptr, ptr, ptr }

@recast_media = global i32 0, align 4
@.str.21 = private unnamed_addr constant [8 x i8] c"encoder\00", align 1
@.str.22 = private unnamed_addr constant [8 x i8] c"decoder\00", align 1
@.str.23 = private unnamed_addr constant [33 x i8] c"Matched %s '%s' for codec '%s'.\0A\00", align 1
@.str.24 = private unnamed_addr constant [17 x i8] c"Unknown %s '%s'\0A\00", align 1
@.str.25 = private unnamed_addr constant [22 x i8] c"Invalid %s type '%s'\0A\00", align 1

; Function Attrs: nounwind uwtable
define i32 @find_codec(ptr noundef %0, ptr noundef %1, i32 noundef %2, i32 noundef %3, ptr noundef %4) #0 {
  %6 = alloca i32, align 4
  %7 = alloca ptr, align 8
  %8 = alloca ptr, align 8
  %9 = alloca i32, align 4
  %10 = alloca i32, align 4
  %11 = alloca ptr, align 8
  %12 = alloca ptr, align 8
  %13 = alloca ptr, align 8
  %14 = alloca ptr, align 8
  %15 = alloca i32, align 4
  store ptr %0, ptr %7, align 8, !tbaa !26
  store ptr %1, ptr %8, align 8, !tbaa !23
  store i32 %2, ptr %9, align 4, !tbaa !16
  store i32 %3, ptr %10, align 4, !tbaa !16
  store ptr %4, ptr %11, align 8, !tbaa !66
  call void @llvm.lifetime.start.p0(i64 8, ptr %12) #12
  call void @llvm.lifetime.start.p0(i64 8, ptr %13) #12
  %16 = load i32, ptr %10, align 4, !tbaa !16
  %17 = icmp ne i32 %16, 0
  %18 = select i1 %17, ptr @.str.21, ptr @.str.22
  store ptr %18, ptr %13, align 8, !tbaa !23
  call void @llvm.lifetime.start.p0(i64 8, ptr %14) #12
  %19 = load i32, ptr %10, align 4, !tbaa !16
  %20 = icmp ne i32 %19, 0
  br i1 %20, label %21, label %24

21:                                               ; preds = %5
  %22 = load ptr, ptr %8, align 8, !tbaa !23
  %23 = call ptr @avcodec_find_encoder_by_name(ptr noundef %22)
  br label %27

24:                                               ; preds = %5
  %25 = load ptr, ptr %8, align 8, !tbaa !23
  %26 = call ptr @avcodec_find_decoder_by_name(ptr noundef %25)
  br label %27

27:                                               ; preds = %24, %21
  %28 = phi ptr [ %23, %21 ], [ %26, %24 ]
  store ptr %28, ptr %14, align 8, !tbaa !68
  %29 = load ptr, ptr %14, align 8, !tbaa !68
  %30 = icmp ne ptr %29, null
  br i1 %30, label %62, label %31

31:                                               ; preds = %27
  %32 = load ptr, ptr %8, align 8, !tbaa !23
  %33 = call ptr @avcodec_descriptor_get_by_name(ptr noundef %32)
  store ptr %33, ptr %12, align 8, !tbaa !70
  %34 = icmp ne ptr %33, null
  br i1 %34, label %35, label %62

35:                                               ; preds = %31
  %36 = load i32, ptr %10, align 4, !tbaa !16
  %37 = icmp ne i32 %36, 0
  br i1 %37, label %38, label %43

38:                                               ; preds = %35
  %39 = load ptr, ptr %12, align 8, !tbaa !70
  %40 = getelementptr inbounds nuw %struct.AVCodecDescriptor, ptr %39, i32 0, i32 0
  %41 = load i32, ptr %40, align 8, !tbaa !72
  %42 = call ptr @avcodec_find_encoder(i32 noundef %41)
  br label %48

43:                                               ; preds = %35
  %44 = load ptr, ptr %12, align 8, !tbaa !70
  %45 = getelementptr inbounds nuw %struct.AVCodecDescriptor, ptr %44, i32 0, i32 0
  %46 = load i32, ptr %45, align 8, !tbaa !72
  %47 = call ptr @avcodec_find_decoder(i32 noundef %46)
  br label %48

48:                                               ; preds = %43, %38
  %49 = phi ptr [ %42, %38 ], [ %47, %43 ]
  store ptr %49, ptr %14, align 8, !tbaa !68
  %50 = load ptr, ptr %14, align 8, !tbaa !68
  %51 = icmp ne ptr %50, null
  br i1 %51, label %52, label %61

52:                                               ; preds = %48
  %53 = load ptr, ptr %7, align 8, !tbaa !26
  %54 = load ptr, ptr %13, align 8, !tbaa !23
  %55 = load ptr, ptr %14, align 8, !tbaa !68
  %56 = getelementptr inbounds nuw %struct.AVCodec, ptr %55, i32 0, i32 0
  %57 = load ptr, ptr %56, align 8, !tbaa !75
  %58 = load ptr, ptr %12, align 8, !tbaa !70
  %59 = getelementptr inbounds nuw %struct.AVCodecDescriptor, ptr %58, i32 0, i32 2
  %60 = load ptr, ptr %59, align 8, !tbaa !79
  call void (ptr, i32, ptr, ...) @av_log(ptr noundef %53, i32 noundef 40, ptr noundef @.str.23, ptr noundef %54, ptr noundef %57, ptr noundef %60)
  br label %61

61:                                               ; preds = %52, %48
  br label %62

62:                                               ; preds = %61, %31, %27
  %63 = load ptr, ptr %14, align 8, !tbaa !68
  %64 = icmp ne ptr %63, null
  br i1 %64, label %72, label %65

65:                                               ; preds = %62
  %66 = load ptr, ptr %7, align 8, !tbaa !26
  %67 = load ptr, ptr %13, align 8, !tbaa !23
  %68 = load ptr, ptr %8, align 8, !tbaa !23
  call void (ptr, i32, ptr, ...) @av_log(ptr noundef %66, i32 noundef 8, ptr noundef @.str.24, ptr noundef %67, ptr noundef %68)
  %69 = load i32, ptr %10, align 4, !tbaa !16
  %70 = icmp ne i32 %69, 0
  %71 = select i1 %70, i32 -1129203192, i32 -1128613112
  store i32 %71, ptr %6, align 4
  store i32 1, ptr %15, align 4
  br label %88

72:                                               ; preds = %62
  %73 = load ptr, ptr %14, align 8, !tbaa !68
  %74 = getelementptr inbounds nuw %struct.AVCodec, ptr %73, i32 0, i32 2
  %75 = load i32, ptr %74, align 8, !tbaa !80
  %76 = load i32, ptr %9, align 4, !tbaa !16
  %77 = icmp ne i32 %75, %76
  br i1 %77, label %78, label %85

78:                                               ; preds = %72
  %79 = load i32, ptr @recast_media, align 4, !tbaa !16
  %80 = icmp ne i32 %79, 0
  br i1 %80, label %85, label %81

81:                                               ; preds = %78
  %82 = load ptr, ptr %7, align 8, !tbaa !26
  %83 = load ptr, ptr %13, align 8, !tbaa !23
  %84 = load ptr, ptr %8, align 8, !tbaa !23
  call void (ptr, i32, ptr, ...) @av_log(ptr noundef %82, i32 noundef 8, ptr noundef @.str.25, ptr noundef %83, ptr noundef %84)
  store i32 -22, ptr %6, align 4
  store i32 1, ptr %15, align 4
  br label %88

85:                                               ; preds = %78, %72
  %86 = load ptr, ptr %14, align 8, !tbaa !68
  %87 = load ptr, ptr %11, align 8, !tbaa !66
  store ptr %86, ptr %87, align 8, !tbaa !68
  store i32 0, ptr %6, align 4
  store i32 1, ptr %15, align 4
  br label %88

88:                                               ; preds = %85, %81, %65
  call void @llvm.lifetime.end.p0(i64 8, ptr %14) #12
  call void @llvm.lifetime.end.p0(i64 8, ptr %13) #12
  call void @llvm.lifetime.end.p0(i64 8, ptr %12) #12
  %89 = load i32, ptr %6, align 4
  ret i32 %89
}