; Function Attrs: nounwind uwtable
define range(i32 -1129203192, 1) i32 @find_codec(ptr noundef %0, ptr noundef %1, i32 noundef %2, i32 noundef %3, ptr noundef writeonly captures(none) %4) local_unnamed_addr #0 {
  %.not = icmp eq i32 %3, 0
  %6 = select i1 %.not, ptr @.str.22, ptr @.str.21
  br i1 %.not, label %9, label %7

7:                                                ; preds = %5
  %8 = tail call ptr @avcodec_find_encoder_by_name(ptr noundef %1) #15
  br label %11

9:                                                ; preds = %5
  %10 = tail call ptr @avcodec_find_decoder_by_name(ptr noundef %1) #15
  br label %11

11:                                               ; preds = %9, %7
  %12 = phi ptr [ %8, %7 ], [ %10, %9 ]
  %.not32 = icmp eq ptr %12, null
  br i1 %.not32, label %13, label %29

13:                                               ; preds = %11
  %14 = tail call ptr @avcodec_descriptor_get_by_name(ptr noundef %1) #15
  %.not33 = icmp eq ptr %14, null
  br i1 %.not33, label %27, label %15

15:                                               ; preds = %13
  %16 = load i32, ptr %14, align 8, !tbaa !45
  br i1 %.not, label %19, label %17

17:                                               ; preds = %15
  %18 = tail call ptr @avcodec_find_encoder(i32 noundef %16) #15
  br label %21

19:                                               ; preds = %15
  %20 = tail call ptr @avcodec_find_decoder(i32 noundef %16) #15
  br label %21

21:                                               ; preds = %19, %17
  %22 = phi ptr [ %18, %17 ], [ %20, %19 ]
  %.not34 = icmp eq ptr %22, null
  br i1 %.not34, label %27, label %23

23:                                               ; preds = %21
  %24 = load ptr, ptr %22, align 8, !tbaa !50
  %25 = getelementptr inbounds nuw i8, ptr %14, i64 8
  %26 = load ptr, ptr %25, align 8, !tbaa !55
  tail call void (ptr, i32, ptr, ...) @av_log(ptr noundef %0, i32 noundef 40, ptr noundef nonnull @.str.23, ptr noundef nonnull %6, ptr noundef %24, ptr noundef %26) #15
  br label %29

27:                                               ; preds = %21, %13
  tail call void (ptr, i32, ptr, ...) @av_log(ptr noundef %0, i32 noundef 8, ptr noundef nonnull @.str.24, ptr noundef nonnull %6, ptr noundef %1) #15
  %28 = select i1 %.not, i32 -1128613112, i32 -1129203192
  br label %37

29:                                               ; preds = %11, %23
  %.0 = phi ptr [ %12, %11 ], [ %22, %23 ]
  %30 = getelementptr inbounds nuw i8, ptr %.0, i64 16
  %31 = load i32, ptr %30, align 8, !tbaa !56
  %32 = icmp eq i32 %31, %2
  %33 = load i32, ptr @recast_media, align 4
  %34 = icmp ne i32 %33, 0
  %or.cond = select i1 %32, i1 true, i1 %34
  br i1 %or.cond, label %36, label %35

35:                                               ; preds = %29
  tail call void (ptr, i32, ptr, ...) @av_log(ptr noundef %0, i32 noundef 8, ptr noundef nonnull @.str.25, ptr noundef nonnull %6, ptr noundef %1) #15
  br label %37

36:                                               ; preds = %29
  store ptr %.0, ptr %4, align 8, !tbaa !57
  br label %37

37:                                               ; preds = %36, %35, %27
  %.027 = phi i32 [ 0, %36 ], [ -22, %35 ], [ %28, %27 ]
  ret i32 %.027
}